(dp0
VK (Nm/A)
p1
V0.01
p2
sVMallet Velocity (m/s)
p3
V6
p4
sVLarge Pulley Radius (m)
p5
V0.0243
p6
sVTotal Free mass (kg)
p7
V0.0966
p8
sVMotor MOI (kg m^2)
p9
V6.80E-03
p10
sVDamping Factor (Nm*s)
p11
V0
p12
sVPuck velocity (m/s)
p13
V12
p14
sVAll Direction Mass
p15
V0.0966
p16
sVForward back mass (Diff)
p17
V0.80
p18
sVBelt Length Mass (One side)
p19
V2.36E-02
p20
sVLarge pulley MOI (kg m2)
p21
V1.94E-05
p22
sVPulley, Belts, Efficiency (%)
p23
V75
p24
sVMotor RPM at max speed
p25
V2362.030734
p26
sVMallet Acceleration (m/s^2)
p27
V44
p28
sVSmall Pulley MOI (kg m2)
p29
V8.26E-06
p30
sVSmall Pulley Radius (m)
p31
V0.01
p32
sVForward Back Mass w/o pulleys 
p33
V0.78
p34
sVMotor Resistance (Ohms)
p35
V1
p36
sVIndunctane (H)
p37
V0.5
p38
s.