ccopy_reg
_reconstructor
p0
(cgoogle.oauth2.credentials
Credentials
p1
c__builtin__
object
p2
Ntp3
Rp4
(dp5
S'_quota_project_id'
p6
NsS'_token_uri'
p7
Vhttps://oauth2.googleapis.com/token
p8
sS'_client_secret'
p9
Vv1ZI8Uma_4e56GHLNUgokHQE
p10
sS'_id_token'
p11
NsS'token'
p12
Vya29.a0AfH6SMAEZE4plVMP9I8ccyprbaPFFJ5Jiy3yNmj2BlJU5kwcwrzV8Dvcmd7bTfCYo6_ftfjq-wnUMwAp4MWskL4Ze6gAYoAAb5hZJ21acxrx9PLYkuzY6xnLzOeh3MR8aproTMBuYSggaC6rveqplJN7XsYxm_i8zJHkO8rMWFuR
p13
sS'_refresh_token'
p14
V1//06twkATKyStgeCgYIARAAGAYSNwF-L9Ir51S1vmFIE7ag8M1XLBkshnjvyO7LlZ6KOEekCK4VYs9gItVXOXGGceVmzhiz8lN64Ck
p15
sS'_scopes'
p16
(lp17
S'https://www.googleapis.com/auth/spreadsheets.readonly'
p18
asS'_client_id'
p19
V791378826240-leovop4rkncpuos5fcv7itp4m0a29m93.apps.googleusercontent.com
p20
sS'expiry'
p21
cdatetime
datetime
p22
(S'\x07\xe5\x01\x15\x004\x0b\x04)\xd7'
p23
tp24
Rp25
sb.